target datalayout = "e-m:e-p270:32:32-p271:32:32-p272:64:64-i64:64-i128:128-f80:128-n8:16:32:64-S128"
target triple = "x86_64-unknown-linux-gnu"

%struct.QemuEvent = type { i32, i8 }
%struct.rcu_reader_data = type { i64, i8, i32, %struct.anon.0, %struct.NotifierList }
%struct.anon.0 = type { ptr, ptr }
%struct.NotifierList = type { %struct.anon.1 }
%struct.anon.1 = type { ptr }
%struct.__va_list_tag = type { i32, i32, ptr, ptr }

@log_per_thread = internal global i8 0, align 1
@.str.57 = private unnamed_addr constant [97 x i8] c"/home/dtcxzyw/WorkSpace/Projects/compilers/llvm-opt-benchmark/bench/qemu/qemu/include/qemu/rcu.h\00", align 1
@.str.58 = private unnamed_addr constant [25 x i8] c"p_rcu_reader->depth != 0\00", align 1
@__PRETTY_FUNCTION__.rcu_read_unlock = private unnamed_addr constant [27 x i8] c"void rcu_read_unlock(void)\00", align 1
@__func__.rcu_read_unlock = private unnamed_addr constant [16 x i8] c"rcu_read_unlock\00", align 1
@rcu_gp_event = external global %struct.QemuEvent, align 4

; Function Attrs: nounwind sspstrong uwtable
define internal void @rcu_read_unlock() #0 {
entry:
  %p_rcu_reader = alloca ptr, align 8
  %.atomictmp = alloca i64, align 8
  %tmp = alloca i8, align 1
  %atomic-temp = alloca i8, align 1
  %.atomictmp23 = alloca i8, align 1
  %call = call ptr @get_ptr_rcu_reader()
  store ptr %call, ptr %p_rcu_reader, align 8
  %0 = load ptr, ptr %p_rcu_reader, align 8
  %depth = getelementptr inbounds %struct.rcu_reader_data, ptr %0, i32 0, i32 2
  %1 = load i32, ptr %depth, align 4
  %cmp = icmp ne i32 %1, 0
  br i1 %cmp, label %if.then, label %if.else

if.then:                                          ; preds = %entry
  br label %if.end

if.else:                                          ; preds = %entry
  call void @__assert_fail(ptr noundef @.str.58, ptr noundef @.str.57, i32 noundef 101, ptr noundef @__PRETTY_FUNCTION__.rcu_read_unlock) #13
  unreachable

if.end:                                           ; preds = %if.then
  %2 = load ptr, ptr %p_rcu_reader, align 8
  %depth1 = getelementptr inbounds %struct.rcu_reader_data, ptr %2, i32 0, i32 2
  %3 = load i32, ptr %depth1, align 4
  %dec = add i32 %3, -1
  store i32 %dec, ptr %depth1, align 4
  %cmp2 = icmp ugt i32 %dec, 0
  br i1 %cmp2, label %if.then3, label %if.end4

if.then3:                                         ; preds = %if.end
  br label %if.end25

if.end4:                                          ; preds = %if.end
  br label %do.body

do.body:                                          ; preds = %if.end4
  br label %while.cond

while.cond:                                       ; preds = %do.end, %do.body
  br i1 false, label %while.body, label %while.end

while.body:                                       ; preds = %while.cond
  br label %do.body5

do.body5:                                         ; preds = %while.body
  call void @g_assertion_message_expr(ptr noundef null, ptr noundef @.str.57, i32 noundef 111, ptr noundef @__func__.rcu_read_unlock, ptr noundef null) #10
  unreachable

do.end:                                           ; No predecessors!
  br label %while.cond

while.end:                                        ; preds = %while.cond
  %4 = load ptr, ptr %p_rcu_reader, align 8
  %ctr = getelementptr inbounds %struct.rcu_reader_data, ptr %4, i32 0, i32 0
  store i64 0, ptr %.atomictmp, align 8
  %5 = load i64, ptr %.atomictmp, align 8
  store atomic i64 %5, ptr %ctr release, align 8
  br label %do.end6

do.end6:                                          ; preds = %while.end
  call void asm sideeffect "", "~{memory},~{dirflag},~{fpsr},~{flags}"() #12, !srcloc !6
  fence seq_cst
  br label %while.cond7

while.cond7:                                      ; preds = %do.end10, %do.end6
  br i1 false, label %while.body8, label %while.end11

while.body8:                                      ; preds = %while.cond7
  br label %do.body9

do.body9:                                         ; preds = %while.body8
  call void @g_assertion_message_expr(ptr noundef null, ptr noundef @.str.57, i32 noundef 115, ptr noundef @__func__.rcu_read_unlock, ptr noundef null) #10
  unreachable

do.end10:                                         ; No predecessors!
  br label %while.cond7

while.end11:                                      ; preds = %while.cond7
  %6 = load ptr, ptr %p_rcu_reader, align 8
  %waiting = getelementptr inbounds %struct.rcu_reader_data, ptr %6, i32 0, i32 1
  %7 = load atomic i8, ptr %waiting monotonic, align 8
  store i8 %7, ptr %atomic-temp, align 1
  %8 = load i8, ptr %atomic-temp, align 1
  %tobool = trunc i8 %8 to i1
  %frombool = zext i1 %tobool to i8
  store i8 %frombool, ptr %tmp, align 1
  %9 = load i8, ptr %tmp, align 1
  %tobool12 = trunc i8 %9 to i1
  %lnot = xor i1 %tobool12, true
  %lnot13 = xor i1 %lnot, true
  %lnot.ext = zext i1 %lnot13 to i32
  %conv = sext i32 %lnot.ext to i64
  %tobool14 = icmp ne i64 %conv, 0
  br i1 %tobool14, label %if.then15, label %if.end25

if.then15:                                        ; preds = %while.end11
  br label %do.body16

do.body16:                                        ; preds = %if.then15
  br label %while.cond17

while.cond17:                                     ; preds = %do.end20, %do.body16
  br i1 false, label %while.body18, label %while.end21

while.body18:                                     ; preds = %while.cond17
  br label %do.body19

do.body19:                                        ; preds = %while.body18
  call void @g_assertion_message_expr(ptr noundef null, ptr noundef @.str.57, i32 noundef 116, ptr noundef @__func__.rcu_read_unlock, ptr noundef null) #10
  unreachable

do.end20:                                         ; No predecessors!
  br label %while.cond17

while.end21:                                      ; preds = %while.cond17
  %10 = load ptr, ptr %p_rcu_reader, align 8
  %waiting22 = getelementptr inbounds %struct.rcu_reader_data, ptr %10, i32 0, i32 1
  store i8 0, ptr %.atomictmp23, align 1
  %11 = load i8, ptr %.atomictmp23, align 1
  store atomic i8 %11, ptr %waiting22 monotonic, align 8
  br label %do.end24

do.end24:                                         ; preds = %while.end21
  call void @qemu_event_set(ptr noundef @rcu_gp_event)
  br label %if.end25

if.end25:                                         ; preds = %do.end24, %while.end11, %if.then3
  ret void
}

; Function Attrs: nounwind sspstrong uwtable
define internal void @qemu_funlockfile(ptr noundef %f) #0 {
entry:
  %f.addr = alloca ptr, align 8
  store ptr %f, ptr %f.addr, align 8
  %0 = load ptr, ptr %f.addr, align 8
  call void @funlockfile(ptr noundef %0) #12
  ret void
}

; Function Attrs: nounwind sspstrong uwtable
define dso_local void @qemu_log_unlock(ptr noundef %logfile) #0 {
entry:
  %logfile.addr = alloca ptr, align 8
  store ptr %logfile, ptr %logfile.addr, align 8
  %0 = load ptr, ptr %logfile.addr, align 8
  %tobool = icmp ne ptr %0, null
  br i1 %tobool, label %if.then, label %if.end3

if.then:                                          ; preds = %entry
  %1 = load ptr, ptr %logfile.addr, align 8
  %call = call i32 @fflush(ptr noundef %1)
  %2 = load ptr, ptr %logfile.addr, align 8
  call void @qemu_funlockfile(ptr noundef %2)
  %3 = load i8, ptr @log_per_thread, align 1
  %tobool1 = trunc i8 %3 to i1
  br i1 %tobool1, label %if.end, label %if.then2

if.then2:                                         ; preds = %if.then
  call void @rcu_read_unlock()
  br label %if.end

if.end:                                           ; preds = %if.then2, %if.then
  br label %if.end3

if.end3:                                          ; preds = %if.end, %entry
  ret void
}

; Function Attrs: nounwind sspstrong uwtable
define dso_local ptr @qemu_log_trylock() #0 {
entry:
  %call = call ptr @qemu_log_trylock_with_err(ptr noundef null)
  ret ptr %call
}

; Function Attrs: nounwind sspstrong uwtable
define dso_local void @qemu_log(ptr noundef %fmt, ...) #0 {
entry:
  %fmt.addr = alloca ptr, align 8
  %f = alloca ptr, align 8
  %ap = alloca [1 x %struct.__va_list_tag], align 16
  store ptr %fmt, ptr %fmt.addr, align 8
  %call = call ptr @qemu_log_trylock()
  store ptr %call, ptr %f, align 8
  %0 = load ptr, ptr %f, align 8
  %tobool = icmp ne ptr %0, null
  br i1 %tobool, label %if.then, label %if.end

if.then:                                          ; preds = %entry
  %arraydecay = getelementptr inbounds [1 x %struct.__va_list_tag], ptr %ap, i64 0, i64 0
  call void @llvm.va_start.p0(ptr %arraydecay)
  %1 = load ptr, ptr %f, align 8
  %2 = load ptr, ptr %fmt.addr, align 8
  %arraydecay1 = getelementptr inbounds [1 x %struct.__va_list_tag], ptr %ap, i64 0, i64 0
  %call2 = call i32 @vfprintf(ptr noundef %1, ptr noundef %2, ptr noundef %arraydecay1)
  %arraydecay3 = getelementptr inbounds [1 x %struct.__va_list_tag], ptr %ap, i64 0, i64 0
  call void @llvm.va_end.p0(ptr %arraydecay3)
  %3 = load ptr, ptr %f, align 8
  call void @qemu_log_unlock(ptr noundef %3)
  br label %if.end

if.end:                                           ; preds = %if.then, %entry
  ret void
}