; Function Attrs: nounwind sspstrong uwtable
define dso_local void @qemu_log(ptr noundef readonly captures(none) %fmt, ...) local_unnamed_addr #2 {
entry:
  %ap = alloca [1 x %struct.__va_list_tag], align 16
  %call.i = tail call fastcc noundef ptr @qemu_log_trylock_with_err(ptr noundef null)
  %tobool.not = icmp eq ptr %call.i, null
  br i1 %tobool.not, label %if.end, label %if.then.i

if.then.i:                                        ; preds = %entry
  call void @llvm.va_start.p0(ptr nonnull %ap)
  %call2 = call i32 @vfprintf(ptr noundef nonnull %call.i, ptr noundef %fmt, ptr noundef nonnull %ap)
  call void @llvm.va_end.p0(ptr nonnull %ap)
  %call.i3 = call i32 @fflush(ptr noundef nonnull %call.i)
  call void @funlockfile(ptr noundef nonnull %call.i) #15
  %.b3.i = load i1, ptr @log_per_thread, align 1
  br i1 %.b3.i, label %if.end, label %if.then2.i

if.then2.i:                                       ; preds = %if.then.i
  %call.i.i = call ptr @get_ptr_rcu_reader() #15
  %depth.i.i = getelementptr inbounds nuw i8, ptr %call.i.i, i64 12
  %0 = load i32, ptr %depth.i.i, align 4
  %cmp.not.i.i = icmp eq i32 %0, 0
  br i1 %cmp.not.i.i, label %if.else.i.i, label %if.end.i.i

if.else.i.i:                                      ; preds = %if.then2.i
  call void @__assert_fail(ptr noundef nonnull @.str.58, ptr noundef nonnull @.str.57, i32 noundef 101, ptr noundef nonnull @__PRETTY_FUNCTION__.rcu_read_unlock) #17
  unreachable

if.end.i.i:                                       ; preds = %if.then2.i
  %dec.i.i = add i32 %0, -1
  store i32 %dec.i.i, ptr %depth.i.i, align 4
  %cmp2.not.i.i = icmp eq i32 %dec.i.i, 0
  br i1 %cmp2.not.i.i, label %while.end.i.i, label %if.end

while.end.i.i:                                    ; preds = %if.end.i.i
  store atomic i64 0, ptr %call.i.i release, align 8
  call void asm sideeffect "", "~{memory},~{dirflag},~{fpsr},~{flags}"() #15, !srcloc !7
  fence seq_cst
  %waiting.i.i = getelementptr inbounds nuw i8, ptr %call.i.i, i64 8
  %1 = load atomic i8, ptr %waiting.i.i monotonic, align 8
  %tobool.i.i = trunc i8 %1 to i1
  br i1 %tobool.i.i, label %while.end21.i.i, label %if.end

while.end21.i.i:                                  ; preds = %while.end.i.i
  store atomic i8 0, ptr %waiting.i.i monotonic, align 8
  call void @qemu_event_set(ptr noundef nonnull @rcu_gp_event) #15
  br label %if.end

if.end:                                           ; preds = %while.end21.i.i, %while.end.i.i, %if.end.i.i, %if.then.i, %entry
  ret void
}